target datalayout = "e-m:e-p270:32:32-p271:32:32-p272:64:64-i64:64-i128:128-f80:128-n8:16:32:64-S128"
target triple = "x86_64-pc-linux-gnu"

%struct.H5O_link_t = type { i32, i8, i64, i32, ptr, %union.anon }
%union.anon = type { %struct.H5O_link_ud_t }
%struct.H5O_link_ud_t = type { ptr, i64 }
%struct.H5O_link_soft_t = type { ptr }

@.str = private unnamed_addr constant [100 x i8] c"generated/home/dtcxzyw/WorkSpace/Projects/compilers/llvm-opt-benchmark/bench/hdf5/hdf5/src/H5Lint.c\00", align 1
@H5E_LINK_g = external global i64, align 8
@H5E_CANTINIT_g = external global i64, align 8
@.str.5 = private unnamed_addr constant [36 x i8] c"unable to create new link to object\00", align 1
@H5E_BADVALUE_g = external global i64, align 8
@.str.6 = private unnamed_addr constant [21 x i8] c"can't normalize name\00", align 1
@__func__.H5L__create_soft = private unnamed_addr constant [17 x i8] c"H5L__create_soft\00", align 1

; Function Attrs: nounwind uwtable
define i32 @H5L__create_soft(ptr noundef %0, ptr noundef %1, ptr noundef %2, i64 noundef %3) #0 {
  %5 = alloca ptr, align 8
  %6 = alloca ptr, align 8
  %7 = alloca ptr, align 8
  %8 = alloca i64, align 8
  %9 = alloca ptr, align 8
  %10 = alloca %struct.H5O_link_t, align 8
  %11 = alloca i32, align 4
  %12 = alloca i8, align 1
  store ptr %0, ptr %5, align 8
  store ptr %1, ptr %6, align 8
  store ptr %2, ptr %7, align 8
  store i64 %3, ptr %8, align 8
  store ptr null, ptr %9, align 8
  store i32 0, ptr %11, align 4
  store i8 0, ptr %12, align 1
  %13 = load ptr, ptr %5, align 8
  %14 = call ptr @H5G_normalize(ptr noundef %13)
  store ptr %14, ptr %9, align 8
  %15 = icmp eq ptr %14, null
  br i1 %15, label %16, label %31

16:                                               ; preds = %4
  br label %17

17:                                               ; preds = %16
  br label %18

18:                                               ; preds = %17
  br label %19

19:                                               ; preds = %18
  %20 = load i64, ptr @H5E_LINK_g, align 8
  %21 = load i64, ptr @H5E_BADVALUE_g, align 8
  %22 = call i32 (ptr, ptr, i32, i64, i64, ptr, ...) @H5E_printf_stack(ptr noundef @.str, ptr noundef @__func__.H5L__create_soft, i32 noundef 836, i64 noundef %20, i64 noundef %21, ptr noundef @.str.6)
  br label %23

23:                                               ; preds = %19
  store i8 1, ptr %12, align 1
  %24 = load i8, ptr %12, align 1
  %25 = trunc i8 %24 to i1
  %26 = zext i1 %25 to i8
  store i8 %26, ptr %12, align 1
  br label %27

27:                                               ; preds = %23
  br label %28

28:                                               ; preds = %27
  store i32 -1, ptr %11, align 4
  br label %57

29:                                               ; No predecessors!
  br label %30

30:                                               ; preds = %29
  br label %31

31:                                               ; preds = %30, %4
  %32 = getelementptr inbounds %struct.H5O_link_t, ptr %10, i32 0, i32 0
  store i32 1, ptr %32, align 8
  %33 = load ptr, ptr %9, align 8
  %34 = getelementptr inbounds %struct.H5O_link_t, ptr %10, i32 0, i32 5
  %35 = getelementptr inbounds %struct.H5O_link_soft_t, ptr %34, i32 0, i32 0
  store ptr %33, ptr %35, align 8
  %36 = load ptr, ptr %6, align 8
  %37 = load ptr, ptr %7, align 8
  %38 = load i64, ptr %8, align 8
  %39 = call i32 @H5L__create_real(ptr noundef %36, ptr noundef %37, ptr noundef null, ptr noundef null, ptr noundef %10, ptr noundef null, i64 noundef %38)
  %40 = icmp slt i32 %39, 0
  br i1 %40, label %41, label %56

41:                                               ; preds = %31
  br label %42

42:                                               ; preds = %41
  br label %43

43:                                               ; preds = %42
  br label %44

44:                                               ; preds = %43
  %45 = load i64, ptr @H5E_LINK_g, align 8
  %46 = load i64, ptr @H5E_CANTINIT_g, align 8
  %47 = call i32 (ptr, ptr, i32, i64, i64, ptr, ...) @H5E_printf_stack(ptr noundef @.str, ptr noundef @__func__.H5L__create_soft, i32 noundef 844, i64 noundef %45, i64 noundef %46, ptr noundef @.str.5)
  br label %48

48:                                               ; preds = %44
  store i8 1, ptr %12, align 1
  %49 = load i8, ptr %12, align 1
  %50 = trunc i8 %49 to i1
  %51 = zext i1 %50 to i8
  store i8 %51, ptr %12, align 1
  br label %52

52:                                               ; preds = %48
  br label %53

53:                                               ; preds = %52
  store i32 -1, ptr %11, align 4
  br label %57

54:                                               ; No predecessors!
  br label %55

55:                                               ; preds = %54
  br label %56

56:                                               ; preds = %55, %31
  br label %57

57:                                               ; preds = %56, %53, %28
  %58 = load ptr, ptr %9, align 8
  %59 = icmp ne ptr %58, null
  br i1 %59, label %60, label %63

60:                                               ; preds = %57
  %61 = load ptr, ptr %9, align 8
  %62 = call ptr @H5MM_xfree(ptr noundef %61)
  br label %63

63:                                               ; preds = %60, %57
  %64 = load i32, ptr %11, align 4
  ret i32 %64
}