; Function Attrs: nounwind uwtable
define range(i32 -1, 1) i32 @H5L__create_soft(ptr noundef %0, ptr noundef %1, ptr noundef %2, i64 noundef %3) local_unnamed_addr #0 {
  %5 = alloca %struct.H5O_link_t, align 8
  %6 = tail call ptr @H5G_normalize(ptr noundef %0) #10
  %7 = icmp eq ptr %6, null
  br i1 %7, label %16, label %8

8:                                                ; preds = %4
  store i32 1, ptr %5, align 8
  %9 = getelementptr inbounds i8, ptr %5, i64 32
  store ptr %6, ptr %9, align 8
  %10 = call fastcc i32 @H5L__create_real(ptr noundef %1, ptr noundef %2, ptr noundef null, ptr noundef null, ptr noundef nonnull %5, ptr noundef null, i64 noundef %3)
  %11 = icmp slt i32 %10, 0
  br i1 %11, label %12, label %20

12:                                               ; preds = %8
  %13 = load i64, ptr @H5E_LINK_g, align 8
  %14 = load i64, ptr @H5E_CANTINIT_g, align 8
  %15 = call i32 (ptr, ptr, i32, i64, i64, ptr, ...) @H5E_printf_stack(ptr noundef nonnull @.str, ptr noundef nonnull @__func__.H5L__create_soft, i32 noundef 844, i64 noundef %13, i64 noundef %14, ptr noundef nonnull @.str.5) #10
  br label %20

16:                                               ; preds = %4
  %17 = load i64, ptr @H5E_LINK_g, align 8
  %18 = load i64, ptr @H5E_BADVALUE_g, align 8
  %19 = tail call i32 (ptr, ptr, i32, i64, i64, ptr, ...) @H5E_printf_stack(ptr noundef nonnull @.str, ptr noundef nonnull @__func__.H5L__create_soft, i32 noundef 836, i64 noundef %17, i64 noundef %18, ptr noundef nonnull @.str.6) #10
  br label %22

20:                                               ; preds = %8, %12
  %.0.ph = phi i32 [ 0, %8 ], [ -1, %12 ]
  %21 = call ptr @H5MM_xfree(ptr noundef nonnull %6) #10
  br label %22

22:                                               ; preds = %16, %20
  %.012 = phi i32 [ %.0.ph, %20 ], [ -1, %16 ]
  ret i32 %.012
}